target datalayout = "e-m:e-p270:32:32-p271:32:32-p272:64:64-i64:64-i128:128-f80:128-n8:16:32:64-S128"
target triple = "x86_64-pc-linux-gnu"

%struct.PQExpBufferData = type { ptr, i64, i64 }

@.str.244 = private unnamed_addr constant [24 x i8] c"\\endif: no matching \\if\00", align 1

; Function Attrs: nounwind uwtable
define internal void @discard_query_text(ptr noundef %0, ptr noundef %1, ptr noundef %2) #0 {
  %4 = alloca ptr, align 8
  %5 = alloca ptr, align 8
  %6 = alloca ptr, align 8
  %7 = alloca i32, align 4
  store ptr %0, ptr %4, align 8
  store ptr %1, ptr %5, align 8
  store ptr %2, ptr %6, align 8
  %8 = load ptr, ptr %6, align 8
  %9 = icmp ne ptr %8, null
  br i1 %9, label %10, label %23

10:                                               ; preds = %3
  call void @llvm.lifetime.start.p0(i64 4, ptr %7) #10
  %11 = load ptr, ptr %5, align 8
  %12 = call i32 @conditional_stack_get_query_len(ptr noundef %11)
  store i32 %12, ptr %7, align 4
  %13 = load i32, ptr %7, align 4
  %14 = sext i32 %13 to i64
  %15 = load ptr, ptr %6, align 8
  %16 = getelementptr inbounds nuw %struct.PQExpBufferData, ptr %15, i32 0, i32 1
  store i64 %14, ptr %16, align 8
  %17 = load ptr, ptr %6, align 8
  %18 = getelementptr inbounds nuw %struct.PQExpBufferData, ptr %17, i32 0, i32 0
  %19 = load ptr, ptr %18, align 8
  %20 = load i32, ptr %7, align 4
  %21 = sext i32 %20 to i64
  %22 = getelementptr inbounds i8, ptr %19, i64 %21
  store i8 0, ptr %22, align 1
  call void @llvm.lifetime.end.p0(i64 4, ptr %7) #10
  br label %23

23:                                               ; preds = %10, %3
  %24 = load ptr, ptr %4, align 8
  %25 = load ptr, ptr %5, align 8
  %26 = call i32 @conditional_stack_get_paren_depth(ptr noundef %25)
  call void @psql_scan_set_paren_depth(ptr noundef %24, i32 noundef %26)
  ret void
}

; Function Attrs: nounwind uwtable
define internal i32 @exec_command_endif(ptr noundef %0, ptr noundef %1, ptr noundef %2) #0 {
  %4 = alloca ptr, align 8
  %5 = alloca ptr, align 8
  %6 = alloca ptr, align 8
  %7 = alloca i8, align 1
  store ptr %0, ptr %4, align 8
  store ptr %1, ptr %5, align 8
  store ptr %2, ptr %6, align 8
  call void @llvm.lifetime.start.p0(i64 1, ptr %7) #10
  store i8 1, ptr %7, align 1
  %8 = load ptr, ptr %5, align 8
  %9 = call i32 @conditional_stack_peek(ptr noundef %8)
  switch i32 %9, label %22 [
    i32 1, label %10
    i32 4, label %10
    i32 2, label %14
    i32 3, label %14
    i32 5, label %14
    i32 0, label %21
  ]

10:                                               ; preds = %3, %3
  %11 = load ptr, ptr %5, align 8
  %12 = call zeroext i1 @conditional_stack_pop(ptr noundef %11)
  %13 = zext i1 %12 to i8
  store i8 %13, ptr %7, align 1
  br label %22

14:                                               ; preds = %3, %3, %3
  %15 = load ptr, ptr %4, align 8
  %16 = load ptr, ptr %5, align 8
  %17 = load ptr, ptr %6, align 8
  call void @discard_query_text(ptr noundef %15, ptr noundef %16, ptr noundef %17)
  %18 = load ptr, ptr %5, align 8
  %19 = call zeroext i1 @conditional_stack_pop(ptr noundef %18)
  %20 = zext i1 %19 to i8
  store i8 %20, ptr %7, align 1
  br label %22

21:                                               ; preds = %3
  call void (i32, i32, ptr, ...) @pg_log_generic(i32 noundef 4, i32 noundef 0, ptr noundef @.str.244)
  store i8 0, ptr %7, align 1
  br label %22

22:                                               ; preds = %3, %21, %14, %10
  %23 = load i8, ptr %7, align 1, !range !4, !noundef !5
  %24 = trunc i8 %23 to i1
  %25 = select i1 %24, i32 2, i32 5
  call void @llvm.lifetime.end.p0(i64 1, ptr %7) #10
  ret i32 %25
}