; Function Attrs: nounwind uwtable
define internal fastcc range(i32 2, 6) i32 @exec_command_endif(ptr noundef %0, ptr noundef %1, ptr noundef captures(address_is_null) %2) unnamed_addr #0 {
  %4 = tail call i32 @conditional_stack_peek(ptr noundef %1) #16
  switch i32 %4, label %.thread [
    i32 1, label %14
    i32 4, label %14
    i32 2, label %5
    i32 3, label %5
    i32 5, label %5
    i32 0, label %.thread8
  ]

5:                                                ; preds = %3, %3, %3
  %.not.i = icmp eq ptr %2, null
  br i1 %.not.i, label %discard_query_text.exit, label %6

6:                                                ; preds = %5
  %7 = tail call i32 @conditional_stack_get_query_len(ptr noundef %1) #16
  %8 = sext i32 %7 to i64
  %9 = getelementptr inbounds nuw i8, ptr %2, i64 8
  store i64 %8, ptr %9, align 8
  %10 = load ptr, ptr %2, align 8
  %11 = getelementptr inbounds i8, ptr %10, i64 %8
  store i8 0, ptr %11, align 1
  br label %discard_query_text.exit

discard_query_text.exit:                          ; preds = %5, %6
  %12 = tail call i32 @conditional_stack_get_paren_depth(ptr noundef %1) #16
  tail call void @psql_scan_set_paren_depth(ptr noundef %0, i32 noundef %12) #16
  %13 = tail call zeroext i1 @conditional_stack_pop(ptr noundef %1) #16
  %cond.fr11 = freeze i1 %13
  br i1 %cond.fr11, label %.thread, label %16

.thread8:                                         ; preds = %3
  tail call void (i32, i32, ptr, ...) @pg_log_generic(i32 noundef 4, i32 noundef 0, ptr noundef nonnull @.str.244) #16
  br label %16

14:                                               ; preds = %3, %3
  %15 = tail call zeroext i1 @conditional_stack_pop(ptr noundef %1) #16
  %cond.fr = freeze i1 %15
  br i1 %cond.fr, label %.thread, label %16

.thread:                                          ; preds = %3, %discard_query_text.exit, %14
  br label %16

16:                                               ; preds = %discard_query_text.exit, %.thread8, %14, %.thread
  %17 = phi i32 [ 2, %.thread ], [ 5, %14 ], [ 5, %.thread8 ], [ 5, %discard_query_text.exit ]
  ret i32 %17
}